target datalayout = "e-m:e-p270:32:32-p271:32:32-p272:64:64-i64:64-i128:128-f80:128-n8:16:32:64-S128"
target triple = "x86_64-pc-linux-gnu"

%struct.strbuf = type { i64, i64, ptr }
%struct.stat = type { i64, i64, i64, i32, i32, i32, i32, i64, i64, i64, i64, %struct.timespec, %struct.timespec, %struct.timespec, [3 x i64] }
%struct.timespec = type { i64, i64 }

@.str.1 = private unnamed_addr constant [37 x i8] c"The empty string is not a valid path\00", align 1
@.str.2 = private unnamed_addr constant [4 x i8] c"PWD\00", align 1

; Function Attrs: inlinehint nounwind uwtable
define internal i64 @strbuf_avail(ptr noundef %0) #5 {
  %2 = alloca ptr, align 8
  store ptr %0, ptr %2, align 8, !tbaa !14
  %3 = load ptr, ptr %2, align 8, !tbaa !14
  %4 = getelementptr inbounds nuw %struct.strbuf, ptr %3, i32 0, i32 0
  %5 = load i64, ptr %4, align 8, !tbaa !25
  %6 = icmp ne i64 %5, 0
  br i1 %6, label %7, label %16

7:                                                ; preds = %1
  %8 = load ptr, ptr %2, align 8, !tbaa !14
  %9 = getelementptr inbounds nuw %struct.strbuf, ptr %8, i32 0, i32 0
  %10 = load i64, ptr %9, align 8, !tbaa !25
  %11 = load ptr, ptr %2, align 8, !tbaa !14
  %12 = getelementptr inbounds nuw %struct.strbuf, ptr %11, i32 0, i32 1
  %13 = load i64, ptr %12, align 8, !tbaa !18
  %14 = sub i64 %10, %13
  %15 = sub i64 %14, 1
  br label %17

16:                                               ; preds = %1
  br label %17

17:                                               ; preds = %16, %7
  %18 = phi i64 [ %15, %7 ], [ 0, %16 ]
  ret i64 %18
}

; Function Attrs: inlinehint nounwind uwtable
define internal i32 @git_has_dos_drive_prefix(ptr noundef %0) #5 {
  %2 = alloca ptr, align 8
  store ptr %0, ptr %2, align 8, !tbaa !4
  ret i32 0
}

; Function Attrs: inlinehint nounwind uwtable
define internal void @strbuf_addch(ptr noundef %0, i32 noundef %1) #5 {
  %3 = alloca ptr, align 8
  %4 = alloca i32, align 4
  store ptr %0, ptr %3, align 8, !tbaa !14
  store i32 %1, ptr %4, align 4, !tbaa !16
  %5 = load ptr, ptr %3, align 8, !tbaa !14
  %6 = call i64 @strbuf_avail(ptr noundef %5)
  %7 = icmp ne i64 %6, 0
  br i1 %7, label %10, label %8

8:                                                ; preds = %2
  %9 = load ptr, ptr %3, align 8, !tbaa !14
  call void @strbuf_grow(ptr noundef %9, i64 noundef 1)
  br label %10

10:                                               ; preds = %8, %2
  %11 = load i32, ptr %4, align 4, !tbaa !16
  %12 = trunc i32 %11 to i8
  %13 = load ptr, ptr %3, align 8, !tbaa !14
  %14 = getelementptr inbounds nuw %struct.strbuf, ptr %13, i32 0, i32 2
  %15 = load ptr, ptr %14, align 8, !tbaa !22
  %16 = load ptr, ptr %3, align 8, !tbaa !14
  %17 = getelementptr inbounds nuw %struct.strbuf, ptr %16, i32 0, i32 1
  %18 = load i64, ptr %17, align 8, !tbaa !18
  %19 = add i64 %18, 1
  store i64 %19, ptr %17, align 8, !tbaa !18
  %20 = getelementptr inbounds nuw i8, ptr %15, i64 %18
  store i8 %12, ptr %20, align 1, !tbaa !17
  %21 = load ptr, ptr %3, align 8, !tbaa !14
  %22 = getelementptr inbounds nuw %struct.strbuf, ptr %21, i32 0, i32 2
  %23 = load ptr, ptr %22, align 8, !tbaa !22
  %24 = load ptr, ptr %3, align 8, !tbaa !14
  %25 = getelementptr inbounds nuw %struct.strbuf, ptr %24, i32 0, i32 1
  %26 = load i64, ptr %25, align 8, !tbaa !18
  %27 = getelementptr inbounds nuw i8, ptr %23, i64 %26
  store i8 0, ptr %27, align 1, !tbaa !17
  ret void
}

; Function Attrs: inlinehint nounwind uwtable
define internal i32 @git_is_dir_sep(i32 noundef %0) #5 {
  %2 = alloca i32, align 4
  store i32 %0, ptr %2, align 4, !tbaa !16
  %3 = load i32, ptr %2, align 4, !tbaa !16
  %4 = icmp eq i32 %3, 47
  %5 = zext i1 %4 to i32
  ret i32 %5
}

; Function Attrs: inlinehint nounwind uwtable
define internal void @strbuf_addstr(ptr noundef %0, ptr noundef %1) #5 {
  %3 = alloca ptr, align 8
  %4 = alloca ptr, align 8
  store ptr %0, ptr %3, align 8, !tbaa !14
  store ptr %1, ptr %4, align 8, !tbaa !4
  %5 = load ptr, ptr %3, align 8, !tbaa !14
  %6 = load ptr, ptr %4, align 8, !tbaa !4
  %7 = load ptr, ptr %4, align 8, !tbaa !4
  %8 = call i64 @strlen(ptr noundef %7) #11
  call void @strbuf_add(ptr noundef %5, ptr noundef %6, i64 noundef %8)
  ret void
}

; Function Attrs: inlinehint nounwind uwtable
define internal i32 @is_absolute_path(ptr noundef %0) #5 {
  %2 = alloca ptr, align 8
  store ptr %0, ptr %2, align 8, !tbaa !4
  %3 = load ptr, ptr %2, align 8, !tbaa !4
  %4 = getelementptr inbounds i8, ptr %3, i64 0
  %5 = load i8, ptr %4, align 1, !tbaa !17
  %6 = sext i8 %5 to i32
  %7 = call i32 @git_is_dir_sep(i32 noundef %6)
  %8 = icmp ne i32 %7, 0
  br i1 %8, label %13, label %9

9:                                                ; preds = %1
  %10 = load ptr, ptr %2, align 8, !tbaa !4
  %11 = call i32 @git_has_dos_drive_prefix(ptr noundef %10)
  %12 = icmp ne i32 %11, 0
  br label %13

13:                                               ; preds = %9, %1
  %14 = phi i1 [ true, %1 ], [ %12, %9 ]
  %15 = zext i1 %14 to i32
  ret i32 %15
}

; Function Attrs: nounwind uwtable
define dso_local void @strbuf_add_absolute_path(ptr noundef %0, ptr noundef %1) #0 {
  %3 = alloca ptr, align 8
  %4 = alloca ptr, align 8
  %5 = alloca %struct.stat, align 8
  %6 = alloca %struct.stat, align 8
  %7 = alloca i64, align 8
  %8 = alloca ptr, align 8
  %9 = alloca ptr, align 8
  store ptr %0, ptr %3, align 8, !tbaa !14
  store ptr %1, ptr %4, align 8, !tbaa !4
  %10 = load ptr, ptr %4, align 8, !tbaa !4
  %11 = load i8, ptr %10, align 1, !tbaa !17
  %12 = icmp ne i8 %11, 0
  br i1 %12, label %14, label %13

13:                                               ; preds = %2
  call void (ptr, ...) @die(ptr noundef @.str.1) #10
  unreachable

14:                                               ; preds = %2
  %15 = load ptr, ptr %4, align 8, !tbaa !4
  %16 = call i32 @is_absolute_path(ptr noundef %15)
  %17 = icmp ne i32 %16, 0
  br i1 %17, label %88, label %18

18:                                               ; preds = %14
  call void @llvm.lifetime.start.p0(i64 144, ptr %5) #9
  call void @llvm.lifetime.start.p0(i64 144, ptr %6) #9
  call void @llvm.lifetime.start.p0(i64 8, ptr %7) #9
  %19 = load ptr, ptr %3, align 8, !tbaa !14
  %20 = getelementptr inbounds nuw %struct.strbuf, ptr %19, i32 0, i32 1
  %21 = load i64, ptr %20, align 8, !tbaa !18
  store i64 %21, ptr %7, align 8, !tbaa !24
  call void @llvm.lifetime.start.p0(i64 8, ptr %8) #9
  %22 = call ptr @xgetcwd()
  store ptr %22, ptr %8, align 8, !tbaa !4
  call void @llvm.lifetime.start.p0(i64 8, ptr %9) #9
  %23 = call ptr @getenv(ptr noundef @.str.2) #9
  store ptr %23, ptr %9, align 8, !tbaa !4
  %24 = load ptr, ptr %9, align 8, !tbaa !4
  %25 = icmp ne ptr %24, null
  br i1 %25, label %26, label %62

26:                                               ; preds = %18
  %27 = load ptr, ptr %9, align 8, !tbaa !4
  %28 = load ptr, ptr %8, align 8, !tbaa !4
  %29 = call i32 @strcmp(ptr noundef %27, ptr noundef %28) #11
  %30 = icmp ne i32 %29, 0
  br i1 %30, label %31, label %62

31:                                               ; preds = %26
  %32 = load ptr, ptr %8, align 8, !tbaa !4
  %33 = call i32 @stat64(ptr noundef %32, ptr noundef %5) #9
  %34 = icmp ne i32 %33, 0
  br i1 %34, label %62, label %35

35:                                               ; preds = %31
  %36 = getelementptr inbounds nuw %struct.stat, ptr %5, i32 0, i32 0
  %37 = load i64, ptr %36, align 8, !tbaa !26
  %38 = icmp ne i64 %37, 0
  br i1 %38, label %43, label %39

39:                                               ; preds = %35
  %40 = getelementptr inbounds nuw %struct.stat, ptr %5, i32 0, i32 1
  %41 = load i64, ptr %40, align 8, !tbaa !27
  %42 = icmp ne i64 %41, 0
  br i1 %42, label %43, label %62

43:                                               ; preds = %39, %35
  %44 = load ptr, ptr %9, align 8, !tbaa !4
  %45 = call i32 @stat64(ptr noundef %44, ptr noundef %6) #9
  %46 = icmp ne i32 %45, 0
  br i1 %46, label %62, label %47

47:                                               ; preds = %43
  %48 = getelementptr inbounds nuw %struct.stat, ptr %6, i32 0, i32 0
  %49 = load i64, ptr %48, align 8, !tbaa !26
  %50 = getelementptr inbounds nuw %struct.stat, ptr %5, i32 0, i32 0
  %51 = load i64, ptr %50, align 8, !tbaa !26
  %52 = icmp eq i64 %49, %51
  br i1 %52, label %53, label %62

53:                                               ; preds = %47
  %54 = getelementptr inbounds nuw %struct.stat, ptr %6, i32 0, i32 1
  %55 = load i64, ptr %54, align 8, !tbaa !27
  %56 = getelementptr inbounds nuw %struct.stat, ptr %5, i32 0, i32 1
  %57 = load i64, ptr %56, align 8, !tbaa !27
  %58 = icmp eq i64 %55, %57
  br i1 %58, label %59, label %62

59:                                               ; preds = %53
  %60 = load ptr, ptr %3, align 8, !tbaa !14
  %61 = load ptr, ptr %9, align 8, !tbaa !4
  call void @strbuf_addstr(ptr noundef %60, ptr noundef %61)
  br label %65

62:                                               ; preds = %53, %47, %43, %39, %31, %26, %18
  %63 = load ptr, ptr %3, align 8, !tbaa !14
  %64 = load ptr, ptr %8, align 8, !tbaa !4
  call void @strbuf_addstr(ptr noundef %63, ptr noundef %64)
  br label %65

65:                                               ; preds = %62, %59
  %66 = load ptr, ptr %3, align 8, !tbaa !14
  %67 = getelementptr inbounds nuw %struct.strbuf, ptr %66, i32 0, i32 1
  %68 = load i64, ptr %67, align 8, !tbaa !18
  %69 = load i64, ptr %7, align 8, !tbaa !24
  %70 = icmp ugt i64 %68, %69
  br i1 %70, label %71, label %86

71:                                               ; preds = %65
  %72 = load ptr, ptr %3, align 8, !tbaa !14
  %73 = getelementptr inbounds nuw %struct.strbuf, ptr %72, i32 0, i32 2
  %74 = load ptr, ptr %73, align 8, !tbaa !22
  %75 = load ptr, ptr %3, align 8, !tbaa !14
  %76 = getelementptr inbounds nuw %struct.strbuf, ptr %75, i32 0, i32 1
  %77 = load i64, ptr %76, align 8, !tbaa !18
  %78 = sub i64 %77, 1
  %79 = getelementptr inbounds nuw i8, ptr %74, i64 %78
  %80 = load i8, ptr %79, align 1, !tbaa !17
  %81 = sext i8 %80 to i32
  %82 = call i32 @git_is_dir_sep(i32 noundef %81)
  %83 = icmp ne i32 %82, 0
  br i1 %83, label %86, label %84

84:                                               ; preds = %71
  %85 = load ptr, ptr %3, align 8, !tbaa !14
  call void @strbuf_addch(ptr noundef %85, i32 noundef 47)
  br label %86

86:                                               ; preds = %84, %71, %65
  %87 = load ptr, ptr %8, align 8, !tbaa !4
  call void @free(ptr noundef %87) #9
  call void @llvm.lifetime.end.p0(i64 8, ptr %9) #9
  call void @llvm.lifetime.end.p0(i64 8, ptr %8) #9
  call void @llvm.lifetime.end.p0(i64 8, ptr %7) #9
  call void @llvm.lifetime.end.p0(i64 144, ptr %6) #9
  call void @llvm.lifetime.end.p0(i64 144, ptr %5) #9
  br label %88

88:                                               ; preds = %86, %14
  %89 = load ptr, ptr %3, align 8, !tbaa !14
  %90 = load ptr, ptr %4, align 8, !tbaa !4
  call void @strbuf_addstr(ptr noundef %89, ptr noundef %90)
  ret void
}