; Function Attrs: nounwind uwtable
define dso_local void @strbuf_add_absolute_path(ptr noundef %0, ptr noundef %1) local_unnamed_addr #3 {
  %3 = alloca %struct.stat, align 8
  %4 = alloca %struct.stat, align 8
  %5 = load i8, ptr %1, align 1, !tbaa !4
  switch i8 %5, label %7 [
    i8 0, label %6
    i8 47, label %49
  ]

6:                                                ; preds = %2
  tail call void (ptr, ...) @die(ptr noundef nonnull @.str.1) #13
  unreachable

7:                                                ; preds = %2
  call void @llvm.lifetime.start.p0(i64 144, ptr nonnull %3) #12
  call void @llvm.lifetime.start.p0(i64 144, ptr nonnull %4) #12
  %8 = getelementptr inbounds nuw i8, ptr %0, i64 8
  %9 = load i64, ptr %8, align 8, !tbaa !12
  %10 = tail call ptr @xgetcwd() #12
  %11 = tail call ptr @getenv(ptr noundef nonnull @.str.2) #12
  %.not23 = icmp eq ptr %11, null
  br i1 %.not23, label %29, label %12

12:                                               ; preds = %7
  %13 = tail call i32 @strcmp(ptr noundef nonnull dereferenceable(1) %11, ptr noundef nonnull dereferenceable(1) %10) #14
  %.not24 = icmp eq i32 %13, 0
  br i1 %.not24, label %29, label %14

14:                                               ; preds = %12
  %15 = call i32 @stat64(ptr noundef nonnull %10, ptr noundef nonnull %3) #12
  %.not25 = icmp eq i32 %15, 0
  br i1 %.not25, label %16, label %29

16:                                               ; preds = %14
  %17 = load i64, ptr %3, align 8, !tbaa !26
  %18 = icmp ne i64 %17, 0
  %19 = getelementptr inbounds nuw i8, ptr %3, i64 8
  %20 = load i64, ptr %19, align 8
  %21 = icmp ne i64 %20, 0
  %or.cond = select i1 %18, i1 true, i1 %21
  br i1 %or.cond, label %22, label %29

22:                                               ; preds = %16
  %23 = call i32 @stat64(ptr noundef nonnull %11, ptr noundef nonnull %4) #12
  %.not26 = icmp eq i32 %23, 0
  %24 = load i64, ptr %4, align 8
  %25 = icmp eq i64 %24, %17
  %or.cond29 = select i1 %.not26, i1 %25, i1 false
  %26 = getelementptr inbounds nuw i8, ptr %4, i64 8
  %27 = load i64, ptr %26, align 8
  %28 = icmp eq i64 %27, %20
  %or.cond32 = select i1 %or.cond29, i1 %28, i1 false
  br i1 %or.cond32, label %30, label %29

29:                                               ; preds = %16, %22, %14, %12, %7
  br label %30

30:                                               ; preds = %22, %29
  %.sink37 = phi ptr [ %10, %29 ], [ %11, %22 ]
  %31 = tail call i64 @strlen(ptr noundef nonnull dereferenceable(1) %.sink37) #14
  tail call void @strbuf_add(ptr noundef nonnull %0, ptr noundef nonnull %.sink37, i64 noundef %31) #12
  %32 = load i64, ptr %8, align 8, !tbaa !12
  %33 = icmp ugt i64 %32, %9
  br i1 %33, label %34, label %48

34:                                               ; preds = %30
  %35 = getelementptr inbounds nuw i8, ptr %0, i64 16
  %36 = load ptr, ptr %35, align 8, !tbaa !7
  %37 = getelementptr i8, ptr %36, i64 %32
  %38 = getelementptr i8, ptr %37, i64 -1
  %39 = load i8, ptr %38, align 1, !tbaa !4
  %.not35 = icmp eq i8 %39, 47
  br i1 %.not35, label %48, label %40

40:                                               ; preds = %34
  %41 = load i64, ptr %0, align 8, !tbaa !18
  %.not.i.i = icmp eq i64 %41, 0
  %.neg.i = add i64 %32, 1
  %.not.i = icmp eq i64 %41, %.neg.i
  %or.cond33 = or i1 %.not.i.i, %.not.i
  br i1 %or.cond33, label %strbuf_avail.exit.thread.i, label %strbuf_addch.exit

strbuf_avail.exit.thread.i:                       ; preds = %40
  tail call void @strbuf_grow(ptr noundef nonnull %0, i64 noundef 1) #12
  %.pre.i = load i64, ptr %8, align 8, !tbaa !12
  %.pre7.i = add i64 %.pre.i, 1
  %.pre = load ptr, ptr %35, align 8, !tbaa !7
  br label %strbuf_addch.exit

strbuf_addch.exit:                                ; preds = %40, %strbuf_avail.exit.thread.i
  %42 = phi ptr [ %.pre, %strbuf_avail.exit.thread.i ], [ %36, %40 ]
  %.pre-phi.i = phi i64 [ %.pre7.i, %strbuf_avail.exit.thread.i ], [ %.neg.i, %40 ]
  %43 = phi i64 [ %.pre.i, %strbuf_avail.exit.thread.i ], [ %32, %40 ]
  store i64 %.pre-phi.i, ptr %8, align 8, !tbaa !12
  %44 = getelementptr inbounds nuw i8, ptr %42, i64 %43
  store i8 47, ptr %44, align 1, !tbaa !4
  %45 = load ptr, ptr %35, align 8, !tbaa !7
  %46 = load i64, ptr %8, align 8, !tbaa !12
  %47 = getelementptr inbounds nuw i8, ptr %45, i64 %46
  store i8 0, ptr %47, align 1, !tbaa !4
  br label %48

48:                                               ; preds = %strbuf_addch.exit, %34, %30
  tail call void @free(ptr noundef nonnull %10) #12
  call void @llvm.lifetime.end.p0(i64 144, ptr nonnull %4) #12
  call void @llvm.lifetime.end.p0(i64 144, ptr nonnull %3) #12
  br label %49

49:                                               ; preds = %2, %48
  %50 = tail call i64 @strlen(ptr noundef nonnull dereferenceable(1) %1) #14
  tail call void @strbuf_add(ptr noundef %0, ptr noundef nonnull %1, i64 noundef %50) #12
  ret void
}